; Function Attrs: mustprogress nounwind uwtable
define dso_local noundef ptr @LLVMDIBuilderCreateImportedModuleFromModule(ptr noundef %0, ptr noundef %1, ptr noundef %2, ptr noundef %3, i32 noundef %4, ptr noundef %5, i32 noundef %6) local_unnamed_addr #0 {
  %.not = icmp eq i32 %6, 0
  br i1 %.not, label %11, label %8

8:                                                ; preds = %7
  %9 = zext i32 %6 to i64
  %10 = tail call ptr @_ZN4llvm9DIBuilder16getOrCreateArrayENS_8ArrayRefIPNS_8MetadataEEE(ptr noundef nonnull align 8 dereferenceable(416) %0, ptr %5, i64 %9) #15
  br label %11

11:                                               ; preds = %7, %8
  %.sroa.08.0 = phi ptr [ %10, %8 ], [ null, %7 ]
  %12 = tail call noundef ptr @_ZN4llvm9DIBuilder20createImportedModuleEPNS_7DIScopeEPNS_8DIModuleEPNS_6DIFileEjNS_24MDTupleTypedArrayWrapperINS_6DINodeEEE(ptr noundef nonnull align 8 dereferenceable(416) %0, ptr noundef %1, ptr noundef %2, ptr noundef %3, i32 noundef %4, ptr %.sroa.08.0) #15
  ret ptr %12
}